; Function Attrs: mustprogress uwtable
define internal fastcc void @_ZN6icu_77L16getDefaultTZNameERKNS_13UnicodeStringEaRS0_(ptr noundef nonnull align 8 dereferenceable(64) %0, i8 noundef signext range(i8 0, 2) %1, ptr noundef nonnull align 8 dereferenceable(64) %2) unnamed_addr #2 personality ptr @__gxx_personality_v0 {
  %4 = alloca %"class.icu_77::UnicodeString", align 8
  %5 = alloca %"class.icu_77::ConstChar16Ptr", align 8
  %6 = alloca %"class.icu_77::UnicodeString", align 8
  %7 = alloca %"class.icu_77::ConstChar16Ptr", align 8
  %8 = tail call noundef nonnull align 8 dereferenceable(64) ptr @_ZN6icu_7713UnicodeStringaSERKS0_(ptr noundef nonnull align 8 dereferenceable(64) %2, ptr noundef nonnull align 8 dereferenceable(64) %0)
  %.not = icmp eq i8 %1, 0
  br i1 %.not, label %27, label %9

9:                                                ; preds = %3
  call void @llvm.lifetime.start.p0(i64 64, ptr nonnull %4) #16
  store ptr @.str.2, ptr %5, align 8, !tbaa !53
  invoke void @_ZN6icu_7713UnicodeStringC1EaNS_14ConstChar16PtrEi(ptr noundef nonnull align 8 dereferenceable(64) %4, i8 noundef signext 1, ptr noundef nonnull %5, i32 noundef -1)
          to label %10 unwind label %21

10:                                               ; preds = %9
  %11 = getelementptr inbounds nuw i8, ptr %4, i64 8
  %12 = load i16, ptr %11, align 8, !tbaa !9
  %13 = icmp slt i16 %12, 0
  %14 = ashr i16 %12, 5
  %15 = sext i16 %14 to i32
  %16 = getelementptr inbounds nuw i8, ptr %4, i64 12
  %17 = load i32, ptr %16, align 4
  %18 = select i1 %13, i32 %17, i32 %15
  %19 = invoke noundef nonnull align 8 dereferenceable(64) ptr @_ZN6icu_7713UnicodeString8doAppendERKS0_ii(ptr noundef nonnull align 8 dereferenceable(64) %2, ptr noundef nonnull align 8 dereferenceable(64) %4, i32 noundef 0, i32 noundef %18)
          to label %_ZN6icu_7713UnicodeStringpLERKS0_.exit unwind label %23

_ZN6icu_7713UnicodeStringpLERKS0_.exit:           ; preds = %10
  call void @_ZN6icu_7713UnicodeStringD1Ev(ptr noundef nonnull align 8 dereferenceable(64) %4) #16
  %20 = load ptr, ptr %5, align 8, !tbaa !53
  call void asm sideeffect "", "rm,~{memory},~{dirflag},~{fpsr},~{flags}"(ptr %20) #16, !srcloc !12
  call void @llvm.lifetime.end.p0(i64 64, ptr nonnull %4) #16
  br label %45

21:                                               ; preds = %9
  %22 = landingpad { ptr, i32 }
          cleanup
  br label %25

23:                                               ; preds = %10
  %24 = landingpad { ptr, i32 }
          cleanup
  call void @_ZN6icu_7713UnicodeStringD1Ev(ptr noundef nonnull align 8 dereferenceable(64) %4) #16
  br label %25

25:                                               ; preds = %23, %21
  %.pn10 = phi { ptr, i32 } [ %24, %23 ], [ %22, %21 ]
  %26 = load ptr, ptr %5, align 8, !tbaa !53
  call void asm sideeffect "", "rm,~{memory},~{dirflag},~{fpsr},~{flags}"(ptr %26) #16, !srcloc !12
  call void @llvm.lifetime.end.p0(i64 64, ptr nonnull %4) #16
  br label %46

27:                                               ; preds = %3
  call void @llvm.lifetime.start.p0(i64 64, ptr nonnull %6) #16
  store ptr @.str.3, ptr %7, align 8, !tbaa !53
  invoke void @_ZN6icu_7713UnicodeStringC1EaNS_14ConstChar16PtrEi(ptr noundef nonnull align 8 dereferenceable(64) %6, i8 noundef signext 1, ptr noundef nonnull %7, i32 noundef -1)
          to label %28 unwind label %39

28:                                               ; preds = %27
  %29 = getelementptr inbounds nuw i8, ptr %6, i64 8
  %30 = load i16, ptr %29, align 8, !tbaa !9
  %31 = icmp slt i16 %30, 0
  %32 = ashr i16 %30, 5
  %33 = sext i16 %32 to i32
  %34 = getelementptr inbounds nuw i8, ptr %6, i64 12
  %35 = load i32, ptr %34, align 4
  %36 = select i1 %31, i32 %35, i32 %33
  %37 = invoke noundef nonnull align 8 dereferenceable(64) ptr @_ZN6icu_7713UnicodeString8doAppendERKS0_ii(ptr noundef nonnull align 8 dereferenceable(64) %2, ptr noundef nonnull align 8 dereferenceable(64) %6, i32 noundef 0, i32 noundef %36)
          to label %_ZN6icu_7713UnicodeStringpLERKS0_.exit13 unwind label %41

_ZN6icu_7713UnicodeStringpLERKS0_.exit13:         ; preds = %28
  call void @_ZN6icu_7713UnicodeStringD1Ev(ptr noundef nonnull align 8 dereferenceable(64) %6) #16
  %38 = load ptr, ptr %7, align 8, !tbaa !53
  call void asm sideeffect "", "rm,~{memory},~{dirflag},~{fpsr},~{flags}"(ptr %38) #16, !srcloc !12
  call void @llvm.lifetime.end.p0(i64 64, ptr nonnull %6) #16
  br label %45

39:                                               ; preds = %27
  %40 = landingpad { ptr, i32 }
          cleanup
  br label %43

41:                                               ; preds = %28
  %42 = landingpad { ptr, i32 }
          cleanup
  call void @_ZN6icu_7713UnicodeStringD1Ev(ptr noundef nonnull align 8 dereferenceable(64) %6) #16
  br label %43

43:                                               ; preds = %41, %39
  %.pn = phi { ptr, i32 } [ %42, %41 ], [ %40, %39 ]
  %44 = load ptr, ptr %7, align 8, !tbaa !53
  call void asm sideeffect "", "rm,~{memory},~{dirflag},~{fpsr},~{flags}"(ptr %44) #16, !srcloc !12
  call void @llvm.lifetime.end.p0(i64 64, ptr nonnull %6) #16
  br label %46

45:                                               ; preds = %_ZN6icu_7713UnicodeStringpLERKS0_.exit13, %_ZN6icu_7713UnicodeStringpLERKS0_.exit
  ret void

46:                                               ; preds = %43, %25
  %.pn10.pn = phi { ptr, i32 } [ %.pn10, %25 ], [ %.pn, %43 ]
  resume { ptr, i32 } %.pn10.pn
}